; Function Attrs: mustprogress nofree norecurse nosync nounwind willreturn memory(read, inaccessiblemem: none) uwtable
define noundef zeroext i1 @_ZNK22MLRenderingSolidAction22isRenderingDataEnabledERK15MLRenderingData(ptr nocapture noundef nonnull readnone align 8 dereferenceable(16) %0, ptr nocapture noundef nonnull readonly align 8 dereferenceable(40) %1) unnamed_addr #11 align 2 personality ptr @__gxx_personality_v0 {
  %3 = load i64, ptr %1, align 8
  %4 = and i64 %3, 8
  %.not.i = icmp eq i64 %4, 0
  br i1 %.not.i, label %_ZNK3vcg11PerViewDataI18MLPerViewGLOptionsE17isPrimitiveActiveENS_20GLMeshAttributesInfo18PRIMITIVE_MODALITYE.exit, label %5

5:                                                ; preds = %2
  %6 = getelementptr inbounds i8, ptr %1, i64 8
  %7 = load ptr, ptr %6, align 8
  %8 = getelementptr inbounds i8, ptr %7, i64 27
  %9 = load i8, ptr %8, align 1
  %10 = and i8 %9, 1
  %11 = icmp ne i8 %10, 0
  br label %_ZNK3vcg11PerViewDataI18MLPerViewGLOptionsE17isPrimitiveActiveENS_20GLMeshAttributesInfo18PRIMITIVE_MODALITYE.exit

_ZNK3vcg11PerViewDataI18MLPerViewGLOptionsE17isPrimitiveActiveENS_20GLMeshAttributesInfo18PRIMITIVE_MODALITYE.exit: ; preds = %2, %5
  %.0.i = phi i1 [ false, %2 ], [ %11, %5 ]
  ret i1 %.0.i
}